(dp0
S'sam'
p1
(dp2
S'confirmedSanta'
p3
S'sanna'
p4
sS'confirmedGiftee'
p5
S''
p6
sS'potentialGiftees'
p7
(lp8
S'oli'
p9
aS'rob'
p10
ag4
aS'eddie'
p11
aS'dawn'
p12
aS'liam'
p13
aS'crob'
p14
aS'shesl'
p15
aS'eerik'
p16
aS'tom'
p17
aS'stephen'
p18
aS'jono'
p19
aS'mike'
p20
aS'sweeney'
p21
aS'olivia'
p22
aS'astrid'
p23
aS'arash'
p24
aS'dafna'
p25
aS'gastrid'
p26
aS'lenny'
p27
aS'charlie'
p28
aS'phil'
p29
aS'maciej'
p30
aS'roger'
p31
assg9
(dp32
g3
g6
sg5
S'sara'
p33
sS'potentialSantas'
p34
(lp35
g1
ag10
ag12
ag13
ag14
aS'paul'
p36
ag15
ag16
ag33
aS'nick'
p37
ag17
ag18
ag19
ag20
aS'mor'
p38
aS'natalie'
p39
ag24
ag25
ag27
ag28
ag30
ag31
assg10
(dp40
g3
g6
sg5
g6
sg7
(lp41
g9
ag4
ag12
ag13
ag14
ag15
ag16
ag18
ag19
ag20
ag21
ag22
ag23
ag25
ag26
ag28
ag29
ag30
ag31
asg34
(lp42
g1
ag11
ag12
ag13
ag14
ag36
ag15
ag16
ag37
ag17
ag18
ag19
ag20
ag38
ag39
ag24
ag25
ag27
ag28
ag30
ag31
assg4
(dp43
g3
g6
sg5
g1
sg34
(lp44
g1
ag10
ag12
ag13
ag14
ag36
ag15
ag16
ag33
ag37
ag17
ag18
ag19
ag20
ag38
ag39
ag24
ag25
ag27
ag28
ag30
ag31
assg11
(dp45
g3
g6
sg5
g6
sg7
(lp46
g10
ag13
ag14
ag17
ag18
ag20
ag22
ag24
ag25
ag27
ag31
asg34
(lp47
g1
ag12
ag13
ag14
ag36
ag15
ag16
ag33
ag37
ag17
ag18
ag19
ag20
ag38
ag39
ag24
ag25
ag27
ag28
ag30
ag31
assS'aimee'
p48
(dp49
g3
S'jamie'
p50
sg5
S'david'
p51
ssg12
(dp52
g3
g6
sg5
g6
sg7
(lp53
g9
ag10
ag4
ag11
ag13
ag14
ag15
ag16
ag17
ag18
ag19
ag20
ag21
ag22
ag23
ag24
ag25
ag26
ag27
ag28
ag29
ag30
ag31
asg34
(lp54
g1
ag10
ag13
ag14
ag36
ag15
ag16
ag37
ag17
ag18
ag19
ag20
ag38
ag39
ag24
ag25
ag27
ag28
ag30
ag31
assg13
(dp55
g3
g6
sg5
g6
sg7
(lp56
g9
ag10
ag4
ag11
ag12
ag14
ag15
ag16
ag17
ag18
ag19
ag20
ag21
ag22
ag23
ag24
ag25
ag26
ag27
ag28
ag29
ag30
ag31
asg34
(lp57
g1
ag10
ag11
ag12
ag14
ag36
ag15
ag16
ag33
ag37
ag17
ag18
ag19
ag20
ag38
ag39
ag24
ag25
ag27
ag28
ag30
ag31
assg14
(dp58
g3
g6
sg5
g6
sg7
(lp59
g9
ag10
ag4
ag11
ag12
ag13
ag15
ag16
ag17
ag18
ag19
ag20
ag21
ag22
ag23
ag24
ag25
ag26
ag27
ag28
ag29
ag30
ag31
asg34
(lp60
g1
ag10
ag11
ag12
ag13
ag36
ag15
ag16
ag33
ag37
ag17
ag18
ag19
ag20
ag38
ag39
ag24
ag25
ag27
ag28
ag30
ag31
assg36
(dp61
g3
g23
sg5
g6
sg7
(lp62
g9
ag10
ag4
ag11
ag12
ag13
ag14
ag15
ag16
ag17
ag18
ag19
ag20
ag21
ag22
ag23
ag24
ag25
ag26
ag27
ag28
ag29
ag30
ag31
assg15
(dp63
g3
g6
sg5
g6
sg7
(lp64
g9
ag10
ag4
ag11
ag12
ag13
ag14
ag16
ag17
ag18
ag19
ag20
ag21
ag22
ag23
ag24
ag25
ag26
ag27
ag28
ag29
ag30
ag31
asg34
(lp65
g1
ag10
ag12
ag13
ag14
ag36
ag16
ag33
ag37
ag17
ag18
ag19
ag20
ag38
ag39
ag24
ag25
ag27
ag28
ag30
ag31
assg23
(dp66
g3
g6
sg5
g36
sg34
(lp67
g1
ag10
ag12
ag13
ag14
ag36
ag15
ag16
ag33
ag37
ag17
ag18
ag19
ag20
ag38
ag39
ag24
ag25
ag27
ag28
ag30
ag31
assg16
(dp68
g3
g6
sg5
g6
sg7
(lp69
g9
ag10
ag4
ag11
ag12
ag13
ag14
ag15
ag17
ag18
ag19
ag20
ag21
ag22
ag23
ag24
ag25
ag26
ag27
ag28
ag29
ag30
ag31
asg34
(lp70
g1
ag10
ag12
ag13
ag14
ag36
ag15
ag33
ag37
ag17
ag18
ag19
ag20
ag38
ag39
ag24
ag25
ag27
ag28
ag30
ag31
assg33
(dp71
g3
g9
sg5
g6
sg7
(lp72
g9
ag4
ag11
ag13
ag14
ag15
ag16
ag17
ag18
ag19
ag20
ag22
ag23
ag25
ag27
ag28
ag30
ag31
assg37
(dp73
g3
S'gerry'
p74
sg5
g6
sg7
(lp75
g9
ag10
ag4
ag11
ag12
ag13
ag14
ag15
ag16
ag17
ag18
ag19
ag20
ag21
ag22
ag23
ag24
ag25
ag26
ag27
ag28
ag29
ag30
ag31
assg17
(dp76
g3
g6
sg5
g6
sg7
(lp77
g9
ag10
ag4
ag11
ag12
ag13
ag14
ag15
ag16
ag18
ag20
ag21
ag22
ag23
ag24
ag25
ag26
ag27
ag28
ag30
ag31
asg34
(lp78
g1
ag11
ag12
ag13
ag14
ag36
ag15
ag16
ag33
ag37
ag18
ag19
ag20
ag38
ag39
ag24
ag25
ag27
ag28
ag30
ag31
assg18
(dp79
g3
g6
sg5
g6
sg7
(lp80
g9
ag10
ag4
ag11
ag12
ag13
ag14
ag15
ag16
ag17
ag19
ag20
ag21
ag22
ag23
ag24
ag25
ag26
ag27
ag28
ag29
ag30
ag31
asg34
(lp81
g1
ag10
ag11
ag12
ag13
ag14
ag36
ag15
ag16
ag33
ag37
ag17
ag19
ag20
ag38
ag39
aS'realph'
p82
ag24
ag25
ag28
ag30
ag31
assg19
(dp83
g3
g6
sg5
g6
sg7
(lp84
g9
ag10
ag4
ag11
ag12
ag13
ag14
ag15
ag16
ag17
ag18
ag20
ag21
ag22
ag23
ag24
ag25
ag26
ag27
ag28
ag29
ag30
ag31
asg34
(lp85
g1
ag10
ag12
ag13
ag14
ag36
ag15
ag16
ag33
ag37
ag18
ag20
ag38
ag39
ag24
ag25
ag28
ag30
ag31
assg20
(dp86
g3
g6
sg5
g6
sg7
(lp87
g9
ag10
ag4
ag11
ag12
ag13
ag14
ag15
ag16
ag17
ag18
ag19
ag21
ag22
ag23
ag24
ag25
ag26
ag27
ag28
ag29
ag30
ag31
asg34
(lp88
g1
ag10
ag11
ag12
ag13
ag14
ag36
ag15
ag16
ag33
ag37
ag17
ag18
ag19
ag38
ag39
ag24
ag25
ag27
ag28
ag30
ag31
assg50
(dp89
g3
g29
sg5
g48
ssg38
(dp90
g3
S'andrea'
p91
sg5
g6
sg7
(lp92
g9
ag10
ag4
ag11
ag12
ag13
ag14
ag15
ag16
ag17
ag18
ag19
ag20
ag21
ag22
ag23
ag24
ag25
ag26
ag27
ag28
ag29
ag30
ag31
assg21
(dp93
g3
g6
sg5
g91
sg34
(lp94
g1
ag10
ag12
ag13
ag14
ag36
ag15
ag16
ag37
ag17
ag18
ag19
ag20
ag38
ag39
ag82
ag24
ag25
ag27
ag28
ag30
ag31
assg25
(dp95
g3
g6
sg5
g6
sg7
(lp96
g9
ag10
ag4
ag11
ag12
ag13
ag14
ag15
ag16
ag17
ag18
ag19
ag20
ag21
ag22
ag23
ag24
ag26
ag27
ag28
ag29
ag30
ag31
asg34
(lp97
g1
ag10
ag11
ag12
ag13
ag14
ag36
ag15
ag16
ag33
ag37
ag17
ag18
ag19
ag20
ag38
ag39
ag24
ag27
ag28
ag30
ag31
assg22
(dp98
g3
g6
sg5
g74
sg34
(lp99
g1
ag10
ag11
ag12
ag13
ag14
ag36
ag15
ag16
ag33
ag37
ag17
ag18
ag19
ag20
ag38
ag39
ag24
ag25
ag27
ag28
ag30
ag31
assg82
(dp100
g3
g26
sg5
g6
sg7
(lp101
g18
ag21
ag27
ag28
ag29
assg91
(dp102
g3
g21
sg5
g38
ssg74
(dp103
g3
g22
sg5
g37
ssg24
(dp104
g3
g6
sg5
g6
sg7
(lp105
g9
ag10
ag4
ag11
ag12
ag13
ag14
ag15
ag16
ag17
ag18
ag19
ag20
ag21
ag22
ag23
ag25
ag26
ag27
ag28
ag29
ag30
ag31
asg34
(lp106
g1
ag11
ag12
ag13
ag14
ag36
ag15
ag16
ag37
ag17
ag18
ag19
ag20
ag38
ag39
ag25
ag27
ag28
ag30
ag31
assg39
(dp107
g3
g51
sg5
g6
sg7
(lp108
g9
ag10
ag4
ag11
ag12
ag13
ag14
ag15
ag16
ag17
ag18
ag19
ag20
ag21
ag22
ag23
ag24
ag25
ag26
ag27
ag28
ag29
ag30
ag31
assg26
(dp109
g3
g6
sg5
g82
sg34
(lp110
g1
ag10
ag12
ag13
ag14
ag36
ag15
ag16
ag37
ag17
ag18
ag19
ag20
ag38
ag39
ag24
ag25
ag28
ag30
ag31
assg27
(dp111
g3
g6
sg5
g6
sg7
(lp112
g9
ag10
ag4
ag11
ag12
ag13
ag14
ag15
ag16
ag17
ag20
ag21
ag22
ag23
ag24
ag25
ag28
ag30
ag31
asg34
(lp113
g1
ag11
ag12
ag13
ag14
ag36
ag15
ag16
ag33
ag37
ag17
ag18
ag19
ag20
ag38
ag39
ag82
ag24
ag25
ag28
ag30
ag31
assg28
(dp114
g3
g6
sg5
g6
sg7
(lp115
g9
ag10
ag4
ag11
ag12
ag13
ag14
ag15
ag16
ag17
ag18
ag19
ag20
ag21
ag22
ag23
ag24
ag25
ag26
ag27
ag29
ag30
ag31
asg34
(lp116
g1
ag10
ag12
ag13
ag14
ag36
ag15
ag16
ag33
ag37
ag17
ag18
ag19
ag20
ag38
ag39
ag82
ag24
ag25
ag27
ag30
ag31
assg29
(dp117
g3
g6
sg5
g50
sg34
(lp118
g1
ag10
ag12
ag13
ag14
ag36
ag15
ag16
ag37
ag18
ag19
ag20
ag38
ag39
ag82
ag24
ag25
ag28
ag30
ag31
assg30
(dp119
g3
g6
sg5
g6
sg7
(lp120
g9
ag10
ag4
ag11
ag12
ag13
ag14
ag15
ag16
ag17
ag18
ag19
ag20
ag21
ag22
ag23
ag24
ag25
ag26
ag27
ag28
ag29
ag31
asg34
(lp121
g1
ag10
ag12
ag13
ag14
ag36
ag15
ag16
ag33
ag37
ag17
ag18
ag19
ag20
ag38
ag39
ag24
ag25
ag27
ag28
ag31
assg51
(dp122
g3
g48
sg5
g39
ssg31
(dp123
g3
g6
sg5
g6
sg7
(lp124
g9
ag10
ag4
ag11
ag12
ag13
ag14
ag15
ag16
ag17
ag18
ag19
ag20
ag21
ag22
ag23
ag24
ag25
ag26
ag27
ag28
ag29
ag30
asg34
(lp125
g1
ag10
ag11
ag12
ag13
ag14
ag36
ag15
ag16
ag33
ag37
ag17
ag18
ag19
ag20
ag38
ag39
ag24
ag25
ag27
ag28
ag30
ass.