(dp0
S'sam'
p1
(dp2
S'confirmedSanta'
p3
S'sanna'
p4
sS'confirmedGiftee'
p5
S''
p6
sS'potentialGiftees'
p7
(lp8
S'oli'
p9
aS'rob'
p10
ag4
aS'eddie'
p11
aS'dawn'
p12
aS'liam'
p13
aS'crob'
p14
aS'shesl'
p15
aS'andrea'
p16
aS'eerik'
p17
aS'tom'
p18
aS'stephen'
p19
aS'jono'
p20
aS'mike'
p21
aS'sweeney'
p22
aS'olivia'
p23
aS'astrid'
p24
aS'arash'
p25
aS'dafna'
p26
aS'gastrid'
p27
aS'lenny'
p28
aS'charlie'
p29
aS'phil'
p30
aS'maciej'
p31
aS'roger'
p32
assg9
(dp33
g3
g6
sg5
S'sara'
p34
sS'potentialSantas'
p35
(lp36
g1
ag10
ag11
ag12
ag13
ag14
aS'paul'
p37
ag15
ag17
ag34
aS'nick'
p38
ag18
ag19
ag20
ag21
aS'mor'
p39
ag22
aS'natalie'
p40
aS'realph'
p41
ag25
ag26
ag28
ag29
ag31
ag32
assg10
(dp42
g3
g6
sg5
g6
sg7
(lp43
g9
ag4
ag11
ag12
ag13
ag14
ag15
ag16
ag17
ag18
ag19
ag20
ag21
ag22
ag23
ag24
ag25
ag26
ag27
ag28
ag29
ag30
ag31
ag32
asg35
(lp44
g1
ag11
ag12
ag13
ag14
ag37
ag15
ag17
ag34
ag38
ag18
ag19
ag20
ag21
ag39
ag22
ag40
ag41
ag25
ag26
ag28
ag29
ag31
ag32
assg4
(dp45
g3
g6
sg5
g1
sg35
(lp46
g1
ag10
ag11
ag12
ag13
ag14
ag37
ag15
ag17
ag34
ag38
ag18
ag19
ag20
ag21
ag39
ag22
ag40
ag41
ag25
ag26
ag28
ag29
ag31
ag32
assg11
(dp47
g3
g6
sg5
g6
sg7
(lp48
g9
ag10
ag4
ag12
ag13
ag14
ag15
ag16
ag17
ag18
ag19
ag20
ag21
ag22
ag23
ag24
ag25
ag26
ag27
ag28
ag29
ag30
ag31
ag32
asg35
(lp49
g1
ag10
ag12
ag13
ag14
ag37
ag15
ag17
ag34
ag38
ag18
ag19
ag20
ag21
ag39
ag22
ag40
ag41
ag25
ag26
ag28
ag29
ag31
ag32
assS'aimee'
p50
(dp51
g3
S'jamie'
p52
sg5
S'david'
p53
ssg12
(dp54
g3
g6
sg5
g6
sg7
(lp55
g9
ag10
ag4
ag11
ag13
ag14
ag15
ag16
ag17
ag18
ag19
ag20
ag21
ag22
ag23
ag24
ag25
ag26
ag27
ag28
ag29
ag30
ag31
ag32
asg35
(lp56
g1
ag10
ag11
ag13
ag14
ag37
ag15
ag17
ag34
ag38
ag18
ag19
ag20
ag21
ag39
ag22
ag40
ag41
ag25
ag26
ag28
ag29
ag31
ag32
assg13
(dp57
g3
g6
sg5
g6
sg7
(lp58
g9
ag10
ag4
ag11
ag12
ag14
ag15
ag16
ag17
ag18
ag19
ag20
ag21
ag22
ag23
ag24
ag25
ag26
ag27
ag28
ag29
ag30
ag31
ag32
asg35
(lp59
g1
ag10
ag11
ag12
ag14
ag37
ag15
ag17
ag34
ag38
ag18
ag19
ag20
ag21
ag39
ag22
ag40
ag41
ag25
ag26
ag28
ag29
ag31
ag32
assg14
(dp60
g3
g6
sg5
g6
sg7
(lp61
g9
ag10
ag4
ag11
ag12
ag13
ag15
ag16
ag17
ag18
ag19
ag20
ag21
ag22
ag23
ag24
ag25
ag26
ag27
ag28
ag29
ag30
ag31
ag32
asg35
(lp62
g1
ag10
ag11
ag12
ag13
ag37
ag15
ag17
ag34
ag38
ag18
ag19
ag20
ag21
ag39
ag22
ag40
ag41
ag25
ag26
ag28
ag29
ag31
ag32
assg37
(dp63
g3
g24
sg5
g6
sg7
(lp64
g9
ag10
ag4
ag11
ag12
ag13
ag14
ag15
ag16
ag17
ag18
ag19
ag20
ag21
ag22
ag23
ag24
ag25
ag26
ag27
ag28
ag29
ag30
ag31
ag32
assg15
(dp65
g3
g6
sg5
g6
sg7
(lp66
g9
ag10
ag4
ag11
ag12
ag13
ag14
ag16
ag17
ag18
ag19
ag20
ag21
ag22
ag23
ag24
ag25
ag26
ag27
ag28
ag29
ag30
ag31
ag32
asg35
(lp67
g1
ag10
ag11
ag12
ag13
ag14
ag37
ag17
ag34
ag38
ag18
ag19
ag20
ag21
ag39
ag22
ag40
ag41
ag25
ag26
ag28
ag29
ag31
ag32
assg24
(dp68
g3
g6
sg5
g37
sg35
(lp69
g1
ag10
ag11
ag12
ag13
ag14
ag37
ag15
ag17
ag34
ag38
ag18
ag19
ag20
ag21
ag39
ag22
ag40
ag41
ag25
ag26
ag28
ag29
ag31
ag32
assg17
(dp70
g3
g6
sg5
g6
sg7
(lp71
g9
ag10
ag4
ag11
ag12
ag13
ag14
ag15
ag16
ag18
ag19
ag20
ag21
ag22
ag23
ag24
ag25
ag26
ag27
ag28
ag29
ag30
ag31
ag32
asg35
(lp72
g1
ag10
ag11
ag12
ag13
ag14
ag37
ag15
ag34
ag38
ag18
ag19
ag20
ag21
ag39
ag22
ag40
ag41
ag25
ag26
ag28
ag29
ag31
ag32
assg34
(dp73
g3
g9
sg5
g6
sg7
(lp74
g9
ag10
ag4
ag11
ag12
ag13
ag14
ag15
ag16
ag17
ag18
ag19
ag20
ag21
ag22
ag23
ag24
ag25
ag26
ag27
ag28
ag29
ag30
ag31
ag32
assg38
(dp75
g3
S'gerry'
p76
sg5
g6
sg7
(lp77
g9
ag10
ag4
ag11
ag12
ag13
ag14
ag15
ag16
ag17
ag18
ag19
ag20
ag21
ag22
ag23
ag24
ag25
ag26
ag27
ag28
ag29
ag30
ag31
ag32
assg18
(dp78
g3
g6
sg5
g6
sg7
(lp79
g9
ag10
ag4
ag11
ag12
ag13
ag14
ag15
ag16
ag17
ag19
ag20
ag21
ag22
ag23
ag24
ag25
ag26
ag27
ag28
ag29
ag30
ag31
ag32
asg35
(lp80
g1
ag10
ag11
ag12
ag13
ag14
ag37
ag15
ag17
ag34
ag38
ag19
ag20
ag21
ag39
ag22
ag40
ag41
ag25
ag26
ag28
ag29
ag31
ag32
assg19
(dp81
g3
g6
sg5
g6
sg7
(lp82
g9
ag10
ag4
ag11
ag12
ag13
ag14
ag15
ag16
ag17
ag18
ag20
ag21
ag22
ag23
ag24
ag25
ag26
ag27
ag28
ag29
ag30
ag31
ag32
asg35
(lp83
g1
ag10
ag11
ag12
ag13
ag14
ag37
ag15
ag17
ag34
ag38
ag18
ag20
ag21
ag39
ag22
ag40
ag41
ag25
ag26
ag28
ag29
ag31
ag32
assg20
(dp84
g3
g6
sg5
g6
sg7
(lp85
g9
ag10
ag4
ag11
ag12
ag13
ag14
ag15
ag16
ag17
ag18
ag19
ag21
ag22
ag23
ag24
ag25
ag26
ag27
ag28
ag29
ag30
ag31
ag32
asg35
(lp86
g1
ag10
ag11
ag12
ag13
ag14
ag37
ag15
ag17
ag34
ag38
ag18
ag19
ag21
ag39
ag22
ag40
ag41
ag25
ag26
ag28
ag29
ag31
ag32
assg21
(dp87
g3
g6
sg5
g6
sg7
(lp88
g9
ag10
ag4
ag11
ag12
ag13
ag14
ag15
ag16
ag17
ag18
ag19
ag20
ag22
ag23
ag24
ag25
ag26
ag27
ag28
ag29
ag30
ag31
ag32
asg35
(lp89
g1
ag10
ag11
ag12
ag13
ag14
ag37
ag15
ag17
ag34
ag38
ag18
ag19
ag20
ag39
ag22
ag40
ag41
ag25
ag26
ag28
ag29
ag31
ag32
assg52
(dp90
g3
g30
sg5
g50
ssg39
(dp91
g3
g16
sg5
g6
sg7
(lp92
g9
ag10
ag4
ag11
ag12
ag13
ag14
ag15
ag16
ag17
ag18
ag19
ag20
ag21
ag22
ag23
ag24
ag25
ag26
ag27
ag28
ag29
ag30
ag31
ag32
assg22
(dp93
g3
g6
sg5
g6
sg7
(lp94
g9
ag10
ag4
ag11
ag12
ag13
ag14
ag15
ag16
ag17
ag18
ag19
ag20
ag21
ag23
ag24
ag25
ag26
ag27
ag28
ag29
ag30
ag31
ag32
asg35
(lp95
g1
ag10
ag11
ag12
ag13
ag14
ag37
ag15
ag17
ag34
ag38
ag18
ag19
ag20
ag21
ag39
ag40
ag41
ag25
ag26
ag28
ag29
ag31
ag32
assg26
(dp96
g3
g6
sg5
g6
sg7
(lp97
g9
ag10
ag4
ag11
ag12
ag13
ag14
ag15
ag16
ag17
ag18
ag19
ag20
ag21
ag22
ag23
ag24
ag25
ag27
ag28
ag29
ag30
ag31
ag32
asg35
(lp98
g1
ag10
ag11
ag12
ag13
ag14
ag37
ag15
ag17
ag34
ag38
ag18
ag19
ag20
ag21
ag39
ag22
ag40
ag41
ag25
ag28
ag29
ag31
ag32
assg23
(dp99
g3
g6
sg5
g76
sg35
(lp100
g1
ag10
ag11
ag12
ag13
ag14
ag37
ag15
ag17
ag34
ag38
ag18
ag19
ag20
ag21
ag39
ag22
ag40
ag41
ag25
ag26
ag28
ag29
ag31
ag32
assg41
(dp101
g3
g27
sg5
g6
sg7
(lp102
g9
ag10
ag4
ag11
ag12
ag13
ag14
ag15
ag16
ag17
ag18
ag19
ag20
ag21
ag22
ag23
ag24
ag25
ag26
ag27
ag28
ag29
ag30
ag31
ag32
assg16
(dp103
g3
g6
sg5
g39
sg35
(lp104
g1
ag10
ag11
ag12
ag13
ag14
ag37
ag15
ag17
ag34
ag38
ag18
ag19
ag20
ag21
ag39
ag22
ag40
ag41
ag25
ag26
ag28
ag29
ag31
ag32
assg76
(dp105
g3
g23
sg5
g38
ssg25
(dp106
g3
g6
sg5
g6
sg7
(lp107
g9
ag10
ag4
ag11
ag12
ag13
ag14
ag15
ag16
ag17
ag18
ag19
ag20
ag21
ag22
ag23
ag24
ag26
ag27
ag28
ag29
ag30
ag31
ag32
asg35
(lp108
g1
ag10
ag11
ag12
ag13
ag14
ag37
ag15
ag17
ag34
ag38
ag18
ag19
ag20
ag21
ag39
ag22
ag40
ag41
ag26
ag28
ag29
ag31
ag32
assg40
(dp109
g3
g53
sg5
g6
sg7
(lp110
g9
ag10
ag4
ag11
ag12
ag13
ag14
ag15
ag16
ag17
ag18
ag19
ag20
ag21
ag22
ag23
ag24
ag25
ag26
ag27
ag28
ag29
ag30
ag31
ag32
assg27
(dp111
g3
g6
sg5
g41
sg35
(lp112
g1
ag10
ag11
ag12
ag13
ag14
ag37
ag15
ag17
ag34
ag38
ag18
ag19
ag20
ag21
ag39
ag22
ag40
ag41
ag25
ag26
ag28
ag29
ag31
ag32
assg28
(dp113
g3
g6
sg5
g6
sg7
(lp114
g9
ag10
ag4
ag11
ag12
ag13
ag14
ag15
ag16
ag17
ag18
ag19
ag20
ag21
ag22
ag23
ag24
ag25
ag26
ag27
ag29
ag30
ag31
ag32
asg35
(lp115
g1
ag10
ag11
ag12
ag13
ag14
ag37
ag15
ag17
ag34
ag38
ag18
ag19
ag20
ag21
ag39
ag22
ag40
ag41
ag25
ag26
ag29
ag31
ag32
assg29
(dp116
g3
g6
sg5
g6
sg7
(lp117
g9
ag10
ag4
ag11
ag12
ag13
ag14
ag15
ag16
ag17
ag18
ag19
ag20
ag21
ag22
ag23
ag24
ag25
ag26
ag27
ag28
ag30
ag31
ag32
asg35
(lp118
g1
ag10
ag11
ag12
ag13
ag14
ag37
ag15
ag17
ag34
ag38
ag18
ag19
ag20
ag21
ag39
ag22
ag40
ag41
ag25
ag26
ag28
ag31
ag32
assg30
(dp119
g3
g6
sg5
g52
sg35
(lp120
g1
ag10
ag11
ag12
ag13
ag14
ag37
ag15
ag17
ag34
ag38
ag18
ag19
ag20
ag21
ag39
ag22
ag40
ag41
ag25
ag26
ag28
ag29
ag31
ag32
assg31
(dp121
g3
g6
sg5
g6
sg7
(lp122
g9
ag10
ag4
ag11
ag12
ag13
ag14
ag15
ag16
ag17
ag18
ag19
ag20
ag21
ag22
ag23
ag24
ag25
ag26
ag27
ag28
ag29
ag30
ag32
asg35
(lp123
g1
ag10
ag11
ag12
ag13
ag14
ag37
ag15
ag17
ag34
ag38
ag18
ag19
ag20
ag21
ag39
ag22
ag40
ag41
ag25
ag26
ag28
ag29
ag32
assg53
(dp124
g3
g50
sg5
g40
ssg32
(dp125
g3
g6
sg5
g6
sg7
(lp126
g9
ag10
ag4
ag11
ag12
ag13
ag14
ag15
ag16
ag17
ag18
ag19
ag20
ag21
ag22
ag23
ag24
ag25
ag26
ag27
ag28
ag29
ag30
ag31
asg35
(lp127
g1
ag10
ag11
ag12
ag13
ag14
ag37
ag15
ag17
ag34
ag38
ag18
ag19
ag20
ag21
ag39
ag22
ag40
ag41
ag25
ag26
ag28
ag29
ag31
ass.