(dp0
S'sam'
p1
(dp2
S'confirmedSanta'
p3
S'sanna'
p4
sS'confirmedGiftee'
p5
S''
p6
ssS'oli'
p7
(dp8
g3
g6
sg5
S'sara'
p9
ssS'rob'
p10
(dp11
g3
g6
sg5
g6
ssg4
(dp12
g3
g6
sg5
g1
ssS'eddie'
p13
(dp14
g3
g6
sg5
g6
ssS'aimee'
p15
(dp16
g3
S'jamie'
p17
sg5
S'david'
p18
ssS'dawn'
p19
(dp20
g3
g6
sg5
g6
ssS'liam'
p21
(dp22
g3
g6
sg5
g6
ssS'crob'
p23
(dp24
g3
g6
sg5
g6
ssS'paul'
p25
(dp26
g3
S'astrid'
p27
sg5
g6
ssS'shesl'
p28
(dp29
g3
g6
sg5
g6
ssg27
(dp30
g3
g6
sg5
g25
ssS'eerik'
p31
(dp32
g3
g6
sg5
g6
ssg9
(dp33
g3
g7
sg5
g6
ssS'nick'
p34
(dp35
g3
S'gerry'
p36
sg5
g6
ssS'tom'
p37
(dp38
g3
g6
sg5
g6
ssS'stephen'
p39
(dp40
g3
g6
sg5
g6
ssS'jono'
p41
(dp42
g3
g6
sg5
g6
ssS'mike'
p43
(dp44
g3
g6
sg5
g6
ssg17
(dp45
g3
S'phil'
p46
sg5
g15
ssS'mor'
p47
(dp48
g3
S'andrea'
p49
sg5
g6
ssS'sweeney'
p50
(dp51
g3
g6
sg5
g6
ssS'dafna'
p52
(dp53
g3
g6
sg5
g6
ssS'olivia'
p54
(dp55
g3
g6
sg5
g36
ssS'realph'
p56
(dp57
g3
S'gastrid'
p58
sg5
g6
ssg49
(dp59
g3
g6
sg5
g47
ssg36
(dp60
g3
g54
sg5
g34
ssS'arash'
p61
(dp62
g3
g6
sg5
g6
ssS'natalie'
p63
(dp64
g3
g6
sg5
g6
ssg58
(dp65
g3
g6
sg5
g56
ssS'lenny'
p66
(dp67
g3
g6
sg5
g6
ssS'charlie'
p68
(dp69
g3
g6
sg5
g6
ssg46
(dp70
g3
g6
sg5
g17
ssS'maciej'
p71
(dp72
g3
g6
sg5
g6
ssg18
(dp73
g3
g15
sg5
g6
ssS'roger'
p74
(dp75
g3
g6
sg5
g6
ss.