(dp0
S'nono'
p1
(dp2
S'confirmedSanta'
p3
S'baby'
p4
sS'confirmedGiftee'
p5
S'mama'
p6
ssS'jojo'
p7
(dp8
g3
g6
sg5
S'stridou'
p9
ssg9
(dp10
g3
g7
sg5
g4
ssg6
(dp11
g3
g1
sg5
g7
ssg4
(dp12
g3
g9
sg5
g1
ss.